; Function Attrs: mustprogress nounwind uwtable
define internal void @_ZN6icu_7712_GLOBAL__N_116CalendarDataSinkD2Ev(ptr noundef nonnull align 8 dereferenceable(600) initializes((0, 8)) %0) unnamed_addr #0 align 2 personality ptr @__gxx_personality_v0 {
  store ptr getelementptr inbounds nuw inrange(-16, 32) (i8, ptr @_ZTVN6icu_7712_GLOBAL__N_116CalendarDataSinkE, i64 16), ptr %0, align 8, !tbaa !15
  %2 = getelementptr inbounds nuw i8, ptr %0, i64 8
  %3 = load ptr, ptr %2, align 8, !tbaa !100
  %4 = invoke noundef ptr @uhash_setValueDeleter_77(ptr noundef %3, ptr noundef nonnull @_ZN6icu_7712_GLOBAL__N_116CalendarDataSink24deleteUnicodeStringArrayEPv)
          to label %_ZN6icu_779Hashtable15setValueDeleterEPFvPvE.exit unwind label %61

_ZN6icu_779Hashtable15setValueDeleterEPFvPvE.exit: ; preds = %1
  %5 = getelementptr inbounds nuw i8, ptr %0, i64 536
  tail call void @_ZN6icu_7713UnicodeStringD1Ev(ptr noundef nonnull align 8 dereferenceable(64) %5) #19
  %6 = getelementptr inbounds nuw i8, ptr %0, i64 528
  %7 = load ptr, ptr %6, align 8, !tbaa !113
  %8 = icmp eq ptr %7, null
  br i1 %8, label %_ZN6icu_7712LocalPointerINS_7UVectorEED2Ev.exit, label %9

9:                                                ; preds = %_ZN6icu_779Hashtable15setValueDeleterEPFvPvE.exit
  %10 = load ptr, ptr %7, align 8, !tbaa !15
  %11 = getelementptr inbounds nuw i8, ptr %10, i64 8
  %12 = load ptr, ptr %11, align 8
  tail call void %12(ptr noundef nonnull align 8 dereferenceable(40) %7) #19
  br label %_ZN6icu_7712LocalPointerINS_7UVectorEED2Ev.exit

_ZN6icu_7712LocalPointerINS_7UVectorEED2Ev.exit:  ; preds = %_ZN6icu_779Hashtable15setValueDeleterEPFvPvE.exit, %9
  %13 = getelementptr inbounds nuw i8, ptr %0, i64 464
  tail call void @_ZN6icu_7713UnicodeStringD1Ev(ptr noundef nonnull align 8 dereferenceable(64) %13) #19
  %14 = getelementptr inbounds nuw i8, ptr %0, i64 400
  tail call void @_ZN6icu_7713UnicodeStringD1Ev(ptr noundef nonnull align 8 dereferenceable(64) %14) #19
  %15 = getelementptr inbounds nuw i8, ptr %0, i64 360
  tail call void @_ZN6icu_777UVectorD1Ev(ptr noundef nonnull align 8 dereferenceable(40) %15) #19
  %16 = getelementptr inbounds nuw i8, ptr %0, i64 272
  %17 = load i32, ptr %16, align 8, !tbaa !106
  %18 = icmp sgt i32 %17, 0
  br i1 %18, label %.lr.ph.i, label %._crit_edge.i

.lr.ph.i:                                         ; preds = %_ZN6icu_7712LocalPointerINS_7UVectorEED2Ev.exit
  %19 = getelementptr inbounds nuw i8, ptr %0, i64 280
  br label %28

._crit_edge.i:                                    ; preds = %40, %_ZN6icu_7712LocalPointerINS_7UVectorEED2Ev.exit
  %20 = getelementptr inbounds nuw i8, ptr %0, i64 292
  %21 = load i8, ptr %20, align 4, !tbaa !112
  %.not.i.i.i = icmp eq i8 %21, 0
  br i1 %.not.i.i.i, label %_ZN6icu_7710MemoryPoolINS_9HashtableELi8EED2Ev.exit, label %22

22:                                               ; preds = %._crit_edge.i
  %23 = getelementptr inbounds nuw i8, ptr %0, i64 280
  %24 = load ptr, ptr %23, align 8, !tbaa !110
  invoke void @uprv_free_77(ptr noundef %24)
          to label %_ZN6icu_7710MemoryPoolINS_9HashtableELi8EED2Ev.exit unwind label %25

25:                                               ; preds = %22
  %26 = landingpad { ptr, i32 }
          catch ptr null
  %27 = extractvalue { ptr, i32 } %26, 0
  tail call void @__clang_call_terminate(ptr %27) #21
  unreachable

28:                                               ; preds = %40, %.lr.ph.i
  %29 = phi i32 [ %17, %.lr.ph.i ], [ %41, %40 ]
  %indvars.iv.i = phi i64 [ 0, %.lr.ph.i ], [ %indvars.iv.next.i, %40 ]
  %30 = load ptr, ptr %19, align 8, !tbaa !110
  %31 = getelementptr inbounds nuw ptr, ptr %30, i64 %indvars.iv.i
  %32 = load ptr, ptr %31, align 8, !tbaa !164
  %33 = icmp eq ptr %32, null
  br i1 %33, label %40, label %34

34:                                               ; preds = %28
  %35 = load ptr, ptr %32, align 8, !tbaa !100
  %.not.i.i = icmp eq ptr %35, null
  br i1 %.not.i.i, label %_ZN6icu_779HashtableD2Ev.exit.i, label %36

36:                                               ; preds = %34
  invoke void @uhash_close_77(ptr noundef nonnull %35)
          to label %_ZN6icu_779HashtableD2Ev.exit.i unwind label %37

37:                                               ; preds = %36
  %38 = landingpad { ptr, i32 }
          catch ptr null
  %39 = extractvalue { ptr, i32 } %38, 0
  tail call void @__clang_call_terminate(ptr %39) #21
  unreachable

_ZN6icu_779HashtableD2Ev.exit.i:                  ; preds = %36, %34
  tail call void @_ZN6icu_777UMemorydlEPv(ptr noundef nonnull %32) #19
  %.pre.i = load i32, ptr %16, align 8, !tbaa !106
  br label %40

40:                                               ; preds = %_ZN6icu_779HashtableD2Ev.exit.i, %28
  %41 = phi i32 [ %29, %28 ], [ %.pre.i, %_ZN6icu_779HashtableD2Ev.exit.i ]
  %indvars.iv.next.i = add nuw nsw i64 %indvars.iv.i, 1
  %42 = sext i32 %41 to i64
  %43 = icmp slt i64 %indvars.iv.next.i, %42
  br i1 %43, label %28, label %._crit_edge.i, !llvm.loop !166

_ZN6icu_7710MemoryPoolINS_9HashtableELi8EED2Ev.exit: ; preds = %._crit_edge.i, %22
  %44 = getelementptr inbounds nuw i8, ptr %0, i64 184
  %45 = load ptr, ptr %44, align 8, !tbaa !100
  %.not.i = icmp eq ptr %45, null
  br i1 %.not.i, label %_ZN6icu_779HashtableD2Ev.exit, label %46

46:                                               ; preds = %_ZN6icu_7710MemoryPoolINS_9HashtableELi8EED2Ev.exit
  invoke void @uhash_close_77(ptr noundef nonnull %45)
          to label %_ZN6icu_779HashtableD2Ev.exit unwind label %47

47:                                               ; preds = %46
  %48 = landingpad { ptr, i32 }
          catch ptr null
  %49 = extractvalue { ptr, i32 } %48, 0
  tail call void @__clang_call_terminate(ptr %49) #21
  unreachable

_ZN6icu_779HashtableD2Ev.exit:                    ; preds = %_ZN6icu_7710MemoryPoolINS_9HashtableELi8EED2Ev.exit, %46
  %50 = getelementptr inbounds nuw i8, ptr %0, i64 96
  %51 = load ptr, ptr %50, align 8, !tbaa !100
  %.not.i1 = icmp eq ptr %51, null
  br i1 %.not.i1, label %_ZN6icu_779HashtableD2Ev.exit2, label %52

52:                                               ; preds = %_ZN6icu_779HashtableD2Ev.exit
  invoke void @uhash_close_77(ptr noundef nonnull %51)
          to label %_ZN6icu_779HashtableD2Ev.exit2 unwind label %53

53:                                               ; preds = %52
  %54 = landingpad { ptr, i32 }
          catch ptr null
  %55 = extractvalue { ptr, i32 } %54, 0
  tail call void @__clang_call_terminate(ptr %55) #21
  unreachable

_ZN6icu_779HashtableD2Ev.exit2:                   ; preds = %_ZN6icu_779HashtableD2Ev.exit, %52
  %56 = load ptr, ptr %2, align 8, !tbaa !100
  %.not.i3 = icmp eq ptr %56, null
  br i1 %.not.i3, label %_ZN6icu_779HashtableD2Ev.exit4, label %57

57:                                               ; preds = %_ZN6icu_779HashtableD2Ev.exit2
  invoke void @uhash_close_77(ptr noundef nonnull %56)
          to label %_ZN6icu_779HashtableD2Ev.exit4 unwind label %58

58:                                               ; preds = %57
  %59 = landingpad { ptr, i32 }
          catch ptr null
  %60 = extractvalue { ptr, i32 } %59, 0
  tail call void @__clang_call_terminate(ptr %60) #21
  unreachable

_ZN6icu_779HashtableD2Ev.exit4:                   ; preds = %_ZN6icu_779HashtableD2Ev.exit2, %57
  tail call void @_ZN6icu_7712ResourceSinkD2Ev(ptr noundef nonnull align 8 dereferenceable(8) %0) #19
  ret void

61:                                               ; preds = %1
  %62 = landingpad { ptr, i32 }
          catch ptr null
  %63 = extractvalue { ptr, i32 } %62, 0
  tail call void @__clang_call_terminate(ptr %63) #21
  unreachable
}